; Function Attrs: mustprogress uwtable
define noalias noundef ptr @lean_io_process_child_wait(ptr noundef readnone captures(none) %0, ptr noundef readonly captures(none) %1, ptr noundef readnone captures(none) %2) local_unnamed_addr #0 {
  %4 = alloca i32, align 4
  %5 = getelementptr inbounds nuw i8, ptr %1, i64 32
  %6 = load i32, ptr %5, align 4, !tbaa !3
  call void @llvm.lifetime.start.p0(i64 4, ptr nonnull %4) #24
  %7 = call i32 @waitpid(i32 noundef %6, ptr noundef nonnull %4, i32 noundef 0)
  %8 = icmp eq i32 %7, -1
  br i1 %8, label %9, label %16

9:                                                ; preds = %3
  %10 = tail call ptr @__errno_location() #26
  %11 = load i32, ptr %10, align 4, !tbaa !3
  %12 = call noundef ptr @lean_decode_io_error(i32 noundef %11, ptr noundef null)
  call void @lean_inc_heartbeat()
  %13 = call noalias ptr @mi_malloc_small(i64 noundef 24) #24
  %14 = icmp eq ptr %13, null
  br i1 %14, label %15, label %_ZN4lean18io_result_mk_errorEP11lean_object.exit

15:                                               ; preds = %9
  call void @lean_internal_panic_out_of_memory() #25
  unreachable

16:                                               ; preds = %3
  %17 = load i32, ptr %4, align 4, !tbaa !3
  %18 = and i32 %17, 127
  %19 = icmp eq i32 %18, 0
  call void @lean_inc_heartbeat()
  %20 = call noalias ptr @mi_malloc_small(i64 noundef 24) #24
  %21 = icmp eq ptr %20, null
  br i1 %19, label %22, label %29

22:                                               ; preds = %16
  br i1 %21, label %23, label %_ZL20lean_io_result_mk_okP11lean_object.exit

23:                                               ; preds = %22
  call void @lean_internal_panic_out_of_memory() #25
  unreachable

_ZL20lean_io_result_mk_okP11lean_object.exit:     ; preds = %22
  %24 = lshr exact i32 %17, 7
  %25 = and i32 %24, 510
  %26 = or disjoint i32 %25, 1
  %27 = zext nneg i32 %26 to i64
  %28 = inttoptr i64 %27 to ptr
  br label %_ZN4lean18io_result_mk_errorEP11lean_object.exit

29:                                               ; preds = %16
  br i1 %21, label %30, label %_ZL20lean_io_result_mk_okP11lean_object.exit3

30:                                               ; preds = %29
  call void @lean_internal_panic_out_of_memory() #25
  unreachable

_ZL20lean_io_result_mk_okP11lean_object.exit3:    ; preds = %29
  %31 = shl nuw nsw i32 %18, 1
  %32 = or disjoint i32 %31, 257
  %33 = zext nneg i32 %32 to i64
  %34 = inttoptr i64 %33 to ptr
  br label %_ZN4lean18io_result_mk_errorEP11lean_object.exit

_ZN4lean18io_result_mk_errorEP11lean_object.exit: ; preds = %9, %_ZL20lean_io_result_mk_okP11lean_object.exit3, %_ZL20lean_io_result_mk_okP11lean_object.exit
  %.sink10 = phi ptr [ %20, %_ZL20lean_io_result_mk_okP11lean_object.exit3 ], [ %20, %_ZL20lean_io_result_mk_okP11lean_object.exit ], [ %13, %9 ]
  %.sink7 = phi i32 [ 131096, %_ZL20lean_io_result_mk_okP11lean_object.exit3 ], [ 131096, %_ZL20lean_io_result_mk_okP11lean_object.exit ], [ 16908312, %9 ]
  %.sink = phi ptr [ %34, %_ZL20lean_io_result_mk_okP11lean_object.exit3 ], [ %28, %_ZL20lean_io_result_mk_okP11lean_object.exit ], [ %12, %9 ]
  %35 = getelementptr inbounds nuw i8, ptr %.sink10, i64 4
  store i32 1, ptr %.sink10, align 4, !tbaa !7
  store i32 %.sink7, ptr %35, align 4
  %36 = getelementptr inbounds nuw i8, ptr %.sink10, i64 8
  store ptr %.sink, ptr %36, align 8, !tbaa !9
  %37 = getelementptr inbounds nuw i8, ptr %.sink10, i64 16
  store ptr inttoptr (i64 1 to ptr), ptr %37, align 8, !tbaa !9
  call void @llvm.lifetime.end.p0(i64 4, ptr nonnull %4) #24
  ret ptr %.sink10
}